target datalayout = "e-m:e-p270:32:32-p271:32:32-p272:64:64-i64:64-i128:128-f80:128-n8:16:32:64-S128"
target triple = "x86_64-unknown-linux-gnu"

%"class.node::tracing::TracedValue" = type <{ %"class.v8::ConvertableToTraceFormat", %"class.std::__cxx11::basic_string", i8, i8, [6 x i8] }>
%"class.v8::ConvertableToTraceFormat" = type { ptr }
%"class.std::__cxx11::basic_string" = type { %"struct.std::__cxx11::basic_string<char>::_Alloc_hider", i64, %union.anon }
%"struct.std::__cxx11::basic_string<char>::_Alloc_hider" = type { ptr }
%union.anon = type { i64, [8 x i8] }

; Function Attrs: mustprogress nounwind uwtable
define dso_local void @_ZN4node7tracing11TracedValue10WriteCommaEv(ptr noundef nonnull align 8 dereferenceable(42) %this) #0 align 2 {
entry:
  %this.addr = alloca ptr, align 8
  store ptr %this, ptr %this.addr, align 8
  %this1 = load ptr, ptr %this.addr, align 8
  %first_item_ = getelementptr inbounds %"class.node::tracing::TracedValue", ptr %this1, i32 0, i32 2
  %0 = load i8, ptr %first_item_, align 8
  %tobool = trunc i8 %0 to i1
  br i1 %tobool, label %if.then, label %if.else

if.then:                                          ; preds = %entry
  %first_item_2 = getelementptr inbounds %"class.node::tracing::TracedValue", ptr %this1, i32 0, i32 2
  store i8 0, ptr %first_item_2, align 8
  br label %if.end

if.else:                                          ; preds = %entry
  %data_ = getelementptr inbounds %"class.node::tracing::TracedValue", ptr %this1, i32 0, i32 1
  %call = call noundef nonnull align 8 dereferenceable(32) ptr @_ZNSt7__cxx1112basic_stringIcSt11char_traitsIcESaIcEEpLEc(ptr noundef nonnull align 8 dereferenceable(32) %data_, i8 noundef signext 44)
  br label %if.end

if.end:                                           ; preds = %if.else, %if.then
  ret void
}

; Function Attrs: mustprogress nounwind uwtable
define dso_local void @_ZN4node7tracing11TracedValue13AppendIntegerEi(ptr noundef nonnull align 8 dereferenceable(42) %this, i32 noundef %value) #0 align 2 {
entry:
  %this.addr = alloca ptr, align 8
  %value.addr = alloca i32, align 4
  %ref.tmp = alloca %"class.std::__cxx11::basic_string", align 8
  store ptr %this, ptr %this.addr, align 8
  store i32 %value, ptr %value.addr, align 4
  %this1 = load ptr, ptr %this.addr, align 8
  call void @_ZN4node7tracing11TracedValue10WriteCommaEv(ptr noundef nonnull align 8 dereferenceable(42) %this1)
  %0 = load i32, ptr %value.addr, align 4
  call void @_ZNSt7__cxx119to_stringEi(ptr sret(%"class.std::__cxx11::basic_string") align 8 %ref.tmp, i32 noundef %0) #9
  %data_ = getelementptr inbounds %"class.node::tracing::TracedValue", ptr %this1, i32 0, i32 1
  %call = call noundef nonnull align 8 dereferenceable(32) ptr @_ZNSt7__cxx1112basic_stringIcSt11char_traitsIcESaIcEEpLERKS4_(ptr noundef nonnull align 8 dereferenceable(32) %data_, ptr noundef nonnull align 8 dereferenceable(32) %ref.tmp)
  call void @_ZNSt7__cxx1112basic_stringIcSt11char_traitsIcESaIcEED1Ev(ptr noundef nonnull align 8 dereferenceable(32) %ref.tmp) #9
  ret void
}